
LCD_4Bits.elf:     file format elf32-avr

Sections:
Idx Name          Size      VMA       LMA       File off  Algn
  0 .text         0000023e  00000000  00000000  00000074  2**1
                  CONTENTS, ALLOC, LOAD, READONLY, CODE
  1 .data         00000020  00800060  0000023e  000002b2  2**0
                  CONTENTS, ALLOC, LOAD, DATA
  2 .comment      00000030  00000000  00000000  000002d2  2**0
                  CONTENTS, READONLY
  3 .note.gnu.avr.deviceinfo 0000003c  00000000  00000000  00000304  2**2
                  CONTENTS, READONLY
  4 .debug_aranges 00000078  00000000  00000000  00000340  2**0
                  CONTENTS, READONLY, DEBUGGING
  5 .debug_info   00000c5f  00000000  00000000  000003b8  2**0
                  CONTENTS, READONLY, DEBUGGING
  6 .debug_abbrev 000006f6  00000000  00000000  00001017  2**0
                  CONTENTS, READONLY, DEBUGGING
  7 .debug_line   00000471  00000000  00000000  0000170d  2**0
                  CONTENTS, READONLY, DEBUGGING
  8 .debug_frame  000000ec  00000000  00000000  00001b80  2**2
                  CONTENTS, READONLY, DEBUGGING
  9 .debug_str    00000442  00000000  00000000  00001c6c  2**0
                  CONTENTS, READONLY, DEBUGGING
 10 .debug_loc    0000061c  00000000  00000000  000020ae  2**0
                  CONTENTS, READONLY, DEBUGGING
 11 .debug_ranges 00000058  00000000  00000000  000026ca  2**0
                  CONTENTS, READONLY, DEBUGGING

Disassembly of section .text:

00000000 <__vectors>:
   0:	0c 94 2a 00 	jmp	0x54	; 0x54 <__ctors_end>
   4:	0c 94 3f 00 	jmp	0x7e	; 0x7e <__bad_interrupt>
   8:	0c 94 3f 00 	jmp	0x7e	; 0x7e <__bad_interrupt>
   c:	0c 94 3f 00 	jmp	0x7e	; 0x7e <__bad_interrupt>
  10:	0c 94 3f 00 	jmp	0x7e	; 0x7e <__bad_interrupt>
  14:	0c 94 3f 00 	jmp	0x7e	; 0x7e <__bad_interrupt>
  18:	0c 94 3f 00 	jmp	0x7e	; 0x7e <__bad_interrupt>
  1c:	0c 94 3f 00 	jmp	0x7e	; 0x7e <__bad_interrupt>
  20:	0c 94 3f 00 	jmp	0x7e	; 0x7e <__bad_interrupt>
  24:	0c 94 3f 00 	jmp	0x7e	; 0x7e <__bad_interrupt>
  28:	0c 94 3f 00 	jmp	0x7e	; 0x7e <__bad_interrupt>
  2c:	0c 94 3f 00 	jmp	0x7e	; 0x7e <__bad_interrupt>
  30:	0c 94 3f 00 	jmp	0x7e	; 0x7e <__bad_interrupt>
  34:	0c 94 3f 00 	jmp	0x7e	; 0x7e <__bad_interrupt>
  38:	0c 94 3f 00 	jmp	0x7e	; 0x7e <__bad_interrupt>
  3c:	0c 94 3f 00 	jmp	0x7e	; 0x7e <__bad_interrupt>
  40:	0c 94 3f 00 	jmp	0x7e	; 0x7e <__bad_interrupt>
  44:	0c 94 3f 00 	jmp	0x7e	; 0x7e <__bad_interrupt>
  48:	0c 94 3f 00 	jmp	0x7e	; 0x7e <__bad_interrupt>
  4c:	0c 94 3f 00 	jmp	0x7e	; 0x7e <__bad_interrupt>
  50:	0c 94 3f 00 	jmp	0x7e	; 0x7e <__bad_interrupt>

00000054 <__ctors_end>:
  54:	11 24       	eor	r1, r1
  56:	1f be       	out	0x3f, r1	; 63
  58:	cf e5       	ldi	r28, 0x5F	; 95
  5a:	d4 e0       	ldi	r29, 0x04	; 4
  5c:	de bf       	out	0x3e, r29	; 62
  5e:	cd bf       	out	0x3d, r28	; 61

00000060 <__do_copy_data>:
  60:	10 e0       	ldi	r17, 0x00	; 0
  62:	a0 e6       	ldi	r26, 0x60	; 96
  64:	b0 e0       	ldi	r27, 0x00	; 0
  66:	ee e3       	ldi	r30, 0x3E	; 62
  68:	f2 e0       	ldi	r31, 0x02	; 2
  6a:	02 c0       	rjmp	.+4      	; 0x70 <__do_copy_data+0x10>
  6c:	05 90       	lpm	r0, Z+
  6e:	0d 92       	st	X+, r0
  70:	a0 38       	cpi	r26, 0x80	; 128
  72:	b1 07       	cpc	r27, r17
  74:	d9 f7       	brne	.-10     	; 0x6c <__do_copy_data+0xc>
  76:	0e 94 10 01 	call	0x220	; 0x220 <main>
  7a:	0c 94 1d 01 	jmp	0x23a	; 0x23a <_exit>

0000007e <__bad_interrupt>:
  7e:	0c 94 00 00 	jmp	0	; 0x0 <__vectors>

00000082 <LCD_sendCommand>:
	
}

void LCD_sendCommand(uint8_t command)
{
	CLEAR_BIT(LCD_CTRL_PORT_OUT,RS);
  82:	92 b3       	in	r25, 0x12	; 18
  84:	9f 7e       	andi	r25, 0xEF	; 239
  86:	92 bb       	out	0x12, r25	; 18
	CLEAR_BIT(LCD_CTRL_PORT_OUT,RW);
  88:	92 b3       	in	r25, 0x12	; 18
  8a:	9f 7d       	andi	r25, 0xDF	; 223
  8c:	92 bb       	out	0x12, r25	; 18
	#else
		//round up by default
		__ticks_dc = (uint32_t)(ceil(fabs(__tmp)));
	#endif

	__builtin_avr_delay_cycles(__ticks_dc);
  8e:	e9 ef       	ldi	r30, 0xF9	; 249
  90:	f0 e0       	ldi	r31, 0x00	; 0
  92:	31 97       	sbiw	r30, 0x01	; 1
  94:	f1 f7       	brne	.-4      	; 0x92 <LCD_sendCommand+0x10>
  96:	00 c0       	rjmp	.+0      	; 0x98 <LCD_sendCommand+0x16>
  98:	00 00       	nop
	_delay_ms(1);
	SET_BIT(LCD_CTRL_PORT_OUT,E);
  9a:	92 b3       	in	r25, 0x12	; 18
  9c:	90 64       	ori	r25, 0x40	; 64
  9e:	92 bb       	out	0x12, r25	; 18
  a0:	e9 ef       	ldi	r30, 0xF9	; 249
  a2:	f0 e0       	ldi	r31, 0x00	; 0
  a4:	31 97       	sbiw	r30, 0x01	; 1
  a6:	f1 f7       	brne	.-4      	; 0xa4 <LCD_sendCommand+0x22>
  a8:	00 c0       	rjmp	.+0      	; 0xaa <LCD_sendCommand+0x28>
  aa:	00 00       	nop
	_delay_ms(1);
	
	#if (LCD_DATA_BITS_MODE == 4)
	
      #ifdef MOST_SIGNIFICANT_BITS
	    LCD_DATA_PORT_OUT = (LCD_DATA_PORT_OUT & 0x0F) | (command & 0xF0);
  ac:	95 b3       	in	r25, 0x15	; 21
  ae:	9f 70       	andi	r25, 0x0F	; 15
  b0:	28 2f       	mov	r18, r24
  b2:	20 7f       	andi	r18, 0xF0	; 240
  b4:	92 2b       	or	r25, r18
  b6:	95 bb       	out	0x15, r25	; 21
  b8:	e9 ef       	ldi	r30, 0xF9	; 249
  ba:	f0 e0       	ldi	r31, 0x00	; 0
  bc:	31 97       	sbiw	r30, 0x01	; 1
  be:	f1 f7       	brne	.-4      	; 0xbc <LCD_sendCommand+0x3a>
  c0:	00 c0       	rjmp	.+0      	; 0xc2 <LCD_sendCommand+0x40>
  c2:	00 00       	nop
	  #else
	    LCD_DATA_PORT_OUT = (LCD_DATA_PORT_OUT & 0xF0) | (command & 0x0F);
      #endif    
	  _delay_ms(1);
	  CLEAR_BIT(LCD_CTRL_PORT_OUT,E);
  c4:	92 b3       	in	r25, 0x12	; 18
  c6:	9f 7b       	andi	r25, 0xBF	; 191
  c8:	92 bb       	out	0x12, r25	; 18
  ca:	e9 ef       	ldi	r30, 0xF9	; 249
  cc:	f0 e0       	ldi	r31, 0x00	; 0
  ce:	31 97       	sbiw	r30, 0x01	; 1
  d0:	f1 f7       	brne	.-4      	; 0xce <LCD_sendCommand+0x4c>
  d2:	00 c0       	rjmp	.+0      	; 0xd4 <LCD_sendCommand+0x52>
  d4:	00 00       	nop
	  _delay_ms(1);
	  SET_BIT(LCD_CTRL_PORT_OUT,E);
  d6:	92 b3       	in	r25, 0x12	; 18
  d8:	90 64       	ori	r25, 0x40	; 64
  da:	92 bb       	out	0x12, r25	; 18
  dc:	e9 ef       	ldi	r30, 0xF9	; 249
  de:	f0 e0       	ldi	r31, 0x00	; 0
  e0:	31 97       	sbiw	r30, 0x01	; 1
  e2:	f1 f7       	brne	.-4      	; 0xe0 <LCD_sendCommand+0x5e>
  e4:	00 c0       	rjmp	.+0      	; 0xe6 <LCD_sendCommand+0x64>
  e6:	00 00       	nop
	  _delay_ms(1);
	  #ifdef MOST_SIGNIFICANT_BITS
	    LCD_DATA_PORT_OUT = (LCD_DATA_PORT_OUT & 0x0F) | ((command & 0x0F)<<4);
  e8:	25 b3       	in	r18, 0x15	; 21
  ea:	f0 e1       	ldi	r31, 0x10	; 16
  ec:	8f 9f       	mul	r24, r31
  ee:	c0 01       	movw	r24, r0
  f0:	11 24       	eor	r1, r1
  f2:	92 2f       	mov	r25, r18
  f4:	9f 70       	andi	r25, 0x0F	; 15
  f6:	89 2b       	or	r24, r25
  f8:	85 bb       	out	0x15, r24	; 21
  fa:	89 ef       	ldi	r24, 0xF9	; 249
  fc:	90 e0       	ldi	r25, 0x00	; 0
  fe:	01 97       	sbiw	r24, 0x01	; 1
 100:	f1 f7       	brne	.-4      	; 0xfe <LCD_sendCommand+0x7c>
 102:	00 c0       	rjmp	.+0      	; 0x104 <LCD_sendCommand+0x82>
 104:	00 00       	nop
	  #endif
    #elif (LCD_DATA_BITS_MODE == 8)
	  LCD_DATA_PORT_OUT = command;
    #endif
	_delay_ms(1);
	CLEAR_BIT(LCD_CTRL_PORT_OUT,E);
 106:	82 b3       	in	r24, 0x12	; 18
 108:	8f 7b       	andi	r24, 0xBF	; 191
 10a:	82 bb       	out	0x12, r24	; 18
 10c:	e9 ef       	ldi	r30, 0xF9	; 249
 10e:	f0 e0       	ldi	r31, 0x00	; 0
 110:	31 97       	sbiw	r30, 0x01	; 1
 112:	f1 f7       	brne	.-4      	; 0x110 <LCD_sendCommand+0x8e>
 114:	00 c0       	rjmp	.+0      	; 0x116 <LCD_sendCommand+0x94>
 116:	00 00       	nop
 118:	08 95       	ret

0000011a <LCD_init>:
#include "lcd.h"

void LCD_init()
{
	
	LCD_CTRL_PORT_DIR |= (1<<RS) | (1<<RW) | (1<<E);
 11a:	81 b3       	in	r24, 0x11	; 17
 11c:	80 67       	ori	r24, 0x70	; 112
 11e:	81 bb       	out	0x11, r24	; 17
	
	#if (LCD_DATA_BITS_MODE == 4)
	  #ifdef MOST_SIGNIFICANT_BITS
	    LCD_DATA_PORT_DIR |= 0xF0;
 120:	84 b3       	in	r24, 0x14	; 20
 122:	80 6f       	ori	r24, 0xF0	; 240
 124:	84 bb       	out	0x14, r24	; 20
	  #else
	    LCD_DATA_PORT_DIR |= 0x0F;
      #endif
	  LCD_sendCommand(FOUR_BITS_DATA_MODE);
 126:	82 e0       	ldi	r24, 0x02	; 2
 128:	0e 94 41 00 	call	0x82	; 0x82 <LCD_sendCommand>
	  LCD_sendCommand(SET_LCD_TWO_LINE_FOUR_BIT_MODE);
 12c:	88 e2       	ldi	r24, 0x28	; 40
 12e:	0e 94 41 00 	call	0x82	; 0x82 <LCD_sendCommand>
	#elif (LCD_DATA_BITS_MODE == 8)
      LCD_DATA_PORT_DIR = 0xFF;
	  LCD_sendCommand(SET_LCD_TWO_LINE_EIGHT_BIT_MODE);
    #endif
	
	LCD_sendCommand(DISPLAY_ON_CURSOR_BLINKING);
 132:	8f e0       	ldi	r24, 0x0F	; 15
 134:	0e 94 41 00 	call	0x82	; 0x82 <LCD_sendCommand>
	LCD_sendCommand(CLEAR_DISPLAY);
 138:	81 e0       	ldi	r24, 0x01	; 1
 13a:	0e 94 41 00 	call	0x82	; 0x82 <LCD_sendCommand>
 13e:	08 95       	ret

00000140 <LCD_displayCharacter>:
	_delay_ms(1);
}

void LCD_displayCharacter(uint8_t data)
{
	SET_BIT(LCD_CTRL_PORT_OUT,RS);
 140:	92 b3       	in	r25, 0x12	; 18
 142:	90 61       	ori	r25, 0x10	; 16
 144:	92 bb       	out	0x12, r25	; 18
	CLEAR_BIT(LCD_CTRL_PORT_OUT,RW);
 146:	92 b3       	in	r25, 0x12	; 18
 148:	9f 7d       	andi	r25, 0xDF	; 223
 14a:	92 bb       	out	0x12, r25	; 18
 14c:	e9 ef       	ldi	r30, 0xF9	; 249
 14e:	f0 e0       	ldi	r31, 0x00	; 0
 150:	31 97       	sbiw	r30, 0x01	; 1
 152:	f1 f7       	brne	.-4      	; 0x150 <LCD_displayCharacter+0x10>
 154:	00 c0       	rjmp	.+0      	; 0x156 <LCD_displayCharacter+0x16>
 156:	00 00       	nop
	_delay_ms(1);
	SET_BIT(LCD_CTRL_PORT_OUT,E);
 158:	92 b3       	in	r25, 0x12	; 18
 15a:	90 64       	ori	r25, 0x40	; 64
 15c:	92 bb       	out	0x12, r25	; 18
 15e:	e9 ef       	ldi	r30, 0xF9	; 249
 160:	f0 e0       	ldi	r31, 0x00	; 0
 162:	31 97       	sbiw	r30, 0x01	; 1
 164:	f1 f7       	brne	.-4      	; 0x162 <LCD_displayCharacter+0x22>
 166:	00 c0       	rjmp	.+0      	; 0x168 <LCD_displayCharacter+0x28>
 168:	00 00       	nop
	_delay_ms(1);
	
	#if (LCD_DATA_BITS_MODE == 4)
	  #ifdef MOST_SIGNIFICANT_BITS
	    LCD_DATA_PORT_OUT = (LCD_DATA_PORT_OUT & 0x0F) | (data & 0xF0);
 16a:	95 b3       	in	r25, 0x15	; 21
 16c:	9f 70       	andi	r25, 0x0F	; 15
 16e:	28 2f       	mov	r18, r24
 170:	20 7f       	andi	r18, 0xF0	; 240
 172:	92 2b       	or	r25, r18
 174:	95 bb       	out	0x15, r25	; 21
 176:	e9 ef       	ldi	r30, 0xF9	; 249
 178:	f0 e0       	ldi	r31, 0x00	; 0
 17a:	31 97       	sbiw	r30, 0x01	; 1
 17c:	f1 f7       	brne	.-4      	; 0x17a <LCD_displayCharacter+0x3a>
 17e:	00 c0       	rjmp	.+0      	; 0x180 <LCD_displayCharacter+0x40>
 180:	00 00       	nop
	  #else
	    LCD_DATA_PORT_OUT = (LCD_DATA_PORT_OUT & 0xF0) | (data & 0x0F);
	  #endif
	  _delay_ms(1);
	  CLEAR_BIT(LCD_CTRL_PORT_OUT,E);
 182:	92 b3       	in	r25, 0x12	; 18
 184:	9f 7b       	andi	r25, 0xBF	; 191
 186:	92 bb       	out	0x12, r25	; 18
 188:	e9 ef       	ldi	r30, 0xF9	; 249
 18a:	f0 e0       	ldi	r31, 0x00	; 0
 18c:	31 97       	sbiw	r30, 0x01	; 1
 18e:	f1 f7       	brne	.-4      	; 0x18c <LCD_displayCharacter+0x4c>
 190:	00 c0       	rjmp	.+0      	; 0x192 <LCD_displayCharacter+0x52>
 192:	00 00       	nop
	  _delay_ms(1);
	  SET_BIT(LCD_CTRL_PORT_OUT,E);
 194:	92 b3       	in	r25, 0x12	; 18
 196:	90 64       	ori	r25, 0x40	; 64
 198:	92 bb       	out	0x12, r25	; 18
 19a:	e9 ef       	ldi	r30, 0xF9	; 249
 19c:	f0 e0       	ldi	r31, 0x00	; 0
 19e:	31 97       	sbiw	r30, 0x01	; 1
 1a0:	f1 f7       	brne	.-4      	; 0x19e <LCD_displayCharacter+0x5e>
 1a2:	00 c0       	rjmp	.+0      	; 0x1a4 <LCD_displayCharacter+0x64>
 1a4:	00 00       	nop
	  _delay_ms(1);
	  #ifdef MOST_SIGNIFICANT_BITS
	    LCD_DATA_PORT_OUT = (LCD_DATA_PORT_OUT & 0x0F) | ((data & 0x0F)<<4);
 1a6:	25 b3       	in	r18, 0x15	; 21
 1a8:	f0 e1       	ldi	r31, 0x10	; 16
 1aa:	8f 9f       	mul	r24, r31
 1ac:	c0 01       	movw	r24, r0
 1ae:	11 24       	eor	r1, r1
 1b0:	92 2f       	mov	r25, r18
 1b2:	9f 70       	andi	r25, 0x0F	; 15
 1b4:	89 2b       	or	r24, r25
 1b6:	85 bb       	out	0x15, r24	; 21
 1b8:	89 ef       	ldi	r24, 0xF9	; 249
 1ba:	90 e0       	ldi	r25, 0x00	; 0
 1bc:	01 97       	sbiw	r24, 0x01	; 1
 1be:	f1 f7       	brne	.-4      	; 0x1bc <LCD_displayCharacter+0x7c>
 1c0:	00 c0       	rjmp	.+0      	; 0x1c2 <LCD_displayCharacter+0x82>
 1c2:	00 00       	nop
	  #endif
	#elif (LCD_DATA_BITS_MODE == 8)
	  LCD_DATA_PORT_OUT = data;
	#endif
	_delay_ms(1);
	CLEAR_BIT(LCD_CTRL_PORT_OUT,E);
 1c4:	82 b3       	in	r24, 0x12	; 18
 1c6:	8f 7b       	andi	r24, 0xBF	; 191
 1c8:	82 bb       	out	0x12, r24	; 18
 1ca:	e9 ef       	ldi	r30, 0xF9	; 249
 1cc:	f0 e0       	ldi	r31, 0x00	; 0
 1ce:	31 97       	sbiw	r30, 0x01	; 1
 1d0:	f1 f7       	brne	.-4      	; 0x1ce <LCD_displayCharacter+0x8e>
 1d2:	00 c0       	rjmp	.+0      	; 0x1d4 <LCD_displayCharacter+0x94>
 1d4:	00 00       	nop
 1d6:	08 95       	ret

000001d8 <LCD_displayString>:
	_delay_ms(1);
}

void LCD_displayString(const uint8_t *String)
{
 1d8:	cf 93       	push	r28
 1da:	df 93       	push	r29
 1dc:	ec 01       	movw	r28, r24
	
	while((*String) != '\0')
 1de:	03 c0       	rjmp	.+6      	; 0x1e6 <LCD_displayString+0xe>
	{
		LCD_displayCharacter(*String);
 1e0:	0e 94 a0 00 	call	0x140	; 0x140 <LCD_displayCharacter>
		String++;
 1e4:	21 96       	adiw	r28, 0x01	; 1
}

void LCD_displayString(const uint8_t *String)
{
	
	while((*String) != '\0')
 1e6:	88 81       	ld	r24, Y
 1e8:	81 11       	cpse	r24, r1
 1ea:	fa cf       	rjmp	.-12     	; 0x1e0 <LCD_displayString+0x8>
		LCD_displayCharacter(*String);
		String++;
		
	}
	
}
 1ec:	df 91       	pop	r29
 1ee:	cf 91       	pop	r28
 1f0:	08 95       	ret

000001f2 <LCD_goToRowColumn>:

void LCD_goToRowColumn(uint8_t row,uint8_t col)
{
	uint8_t Adrreses = 0x00;
	
	switch(row)
 1f2:	88 23       	and	r24, r24
 1f4:	29 f0       	breq	.+10     	; 0x200 <__EEPROM_REGION_LENGTH__>
 1f6:	81 30       	cpi	r24, 0x01	; 1
 1f8:	11 f0       	breq	.+4      	; 0x1fe <LCD_goToRowColumn+0xc>
	
}

void LCD_goToRowColumn(uint8_t row,uint8_t col)
{
	uint8_t Adrreses = 0x00;
 1fa:	60 e0       	ldi	r22, 0x00	; 0
 1fc:	01 c0       	rjmp	.+2      	; 0x200 <__EEPROM_REGION_LENGTH__>
		case 0 :
		Adrreses = col;
		break;
		
		case 1:
		Adrreses = (0x40) + col;
 1fe:	60 5c       	subi	r22, 0xC0	; 192
		break;
	}
	
	LCD_sendCommand(Adrreses | SET_CURSOR_POSITION);
 200:	86 2f       	mov	r24, r22
 202:	80 68       	ori	r24, 0x80	; 128
 204:	0e 94 41 00 	call	0x82	; 0x82 <LCD_sendCommand>
 208:	08 95       	ret

0000020a <LCD_displayStringRowColumn>:
	

}

void LCD_displayStringRowColumn(uint8_t row,uint8_t col,const uint8_t *String)
{
 20a:	cf 93       	push	r28
 20c:	df 93       	push	r29
 20e:	ea 01       	movw	r28, r20
	LCD_goToRowColumn(row,col);
 210:	0e 94 f9 00 	call	0x1f2	; 0x1f2 <LCD_goToRowColumn>
	LCD_displayString(String);
 214:	ce 01       	movw	r24, r28
 216:	0e 94 ec 00 	call	0x1d8	; 0x1d8 <LCD_displayString>
}
 21a:	df 91       	pop	r29
 21c:	cf 91       	pop	r28
 21e:	08 95       	ret

00000220 <main>:

#include "lcd.h"

int main(void)
{
	LCD_init(); /* initialize LCD */
 220:	0e 94 8d 00 	call	0x11a	; 0x11a <LCD_init>
	LCD_displayString("Welcome To LCD");
 224:	80 e6       	ldi	r24, 0x60	; 96
 226:	90 e0       	ldi	r25, 0x00	; 0
 228:	0e 94 ec 00 	call	0x1d8	; 0x1d8 <LCD_displayString>
	LCD_displayStringRowColumn(1,0,"4 Bits Data Mode");
 22c:	4f e6       	ldi	r20, 0x6F	; 111
 22e:	50 e0       	ldi	r21, 0x00	; 0
 230:	60 e0       	ldi	r22, 0x00	; 0
 232:	81 e0       	ldi	r24, 0x01	; 1
 234:	0e 94 05 01 	call	0x20a	; 0x20a <LCD_displayStringRowColumn>
 238:	ff cf       	rjmp	.-2      	; 0x238 <main+0x18>

0000023a <_exit>:
 23a:	f8 94       	cli

0000023c <__stop_program>:
 23c:	ff cf       	rjmp	.-2      	; 0x23c <__stop_program>
